; Function Attrs: mustprogress nounwind uwtable
define internal void @"_ZNSt17_Function_handlerIFNSt7__cxx1112basic_stringIcSt11char_traitsIcESaIcEEERN5clang4ento22PathSensitiveBugReportEEZNK12_GLOBAL__N_122DebugContainerModeling26analyzerContainerDataFieldIZNKSC_22analyzerContainerBeginEPKNS6_8CallExprERNS7_14CheckerContextEE3$_0EEvSG_SI_T_EUlS9_E_E9_M_invokeERKSt9_Any_dataS9_"(ptr dead_on_unwind noalias writable sret(%"class.std::__cxx11::basic_string") align 8 %0, ptr noundef nonnull readonly align 8 captures(none) dereferenceable(16) %1, ptr noundef nonnull align 8 dereferenceable(1016) %2) #0 align 2 {
  %4 = alloca %"class.std::allocator.0", align 1
  call void @llvm.lifetime.start.p0(i64 1, ptr nonnull %4), !noalias !41
  %5 = getelementptr inbounds nuw i8, ptr %1, i64 8
  %6 = load ptr, ptr %5, align 8, !noalias !46
  %7 = tail call noundef zeroext i1 @_ZNK5clang4ento22PathSensitiveBugReport13isInterestingEPKNS0_7SymExprE(ptr noundef nonnull align 8 dereferenceable(1016) %2, ptr noundef %6) #15, !noalias !46
  br i1 %7, label %8, label %"_ZSt10__invoke_rINSt7__cxx1112basic_stringIcSt11char_traitsIcESaIcEEERZNK12_GLOBAL__N_122DebugContainerModeling26analyzerContainerDataFieldIZNKS7_22analyzerContainerBeginEPKN5clang8CallExprERNS9_4ento14CheckerContextEE3$_0EEvSC_SF_T_EUlRNSD_22PathSensitiveBugReportEE_JSJ_EENSt9enable_ifIX16is_invocable_r_vISH_T0_DpT1_EESH_E4typeEOSN_DpOSO_.exit"

8:                                                ; preds = %3
  %9 = load ptr, ptr %1, align 8, !noalias !46
  tail call void @_ZN5clang4ento22PathSensitiveBugReport15markInterestingEPKNS0_9MemRegionENS0_11bugreporter12TrackingKindE(ptr noundef nonnull align 8 dereferenceable(1016) %2, ptr noundef %9, i32 noundef 0) #15, !noalias !46
  br label %"_ZSt10__invoke_rINSt7__cxx1112basic_stringIcSt11char_traitsIcESaIcEEERZNK12_GLOBAL__N_122DebugContainerModeling26analyzerContainerDataFieldIZNKS7_22analyzerContainerBeginEPKN5clang8CallExprERNS9_4ento14CheckerContextEE3$_0EEvSC_SF_T_EUlRNSD_22PathSensitiveBugReportEE_JSJ_EENSt9enable_ifIX16is_invocable_r_vISH_T0_DpT1_EESH_E4typeEOSN_DpOSO_.exit"

"_ZSt10__invoke_rINSt7__cxx1112basic_stringIcSt11char_traitsIcESaIcEEERZNK12_GLOBAL__N_122DebugContainerModeling26analyzerContainerDataFieldIZNKS7_22analyzerContainerBeginEPKN5clang8CallExprERNS9_4ento14CheckerContextEE3$_0EEvSC_SF_T_EUlRNSD_22PathSensitiveBugReportEE_JSJ_EENSt9enable_ifIX16is_invocable_r_vISH_T0_DpT1_EESH_E4typeEOSN_DpOSO_.exit": ; preds = %3, %8
  call void @_ZNSaIcEC1Ev(ptr noundef nonnull align 1 dereferenceable(1) %4) #15, !noalias !46
  %10 = call noundef ptr @_ZNSt7__cxx1112basic_stringIcSt11char_traitsIcESaIcEE13_M_local_dataEv(ptr noundef nonnull align 8 dereferenceable(32) %0) #15
  call void @_ZNSt7__cxx1112basic_stringIcSt11char_traitsIcESaIcEE12_Alloc_hiderC1EPcRKS3_(ptr noundef nonnull align 8 dereferenceable(32) %0, ptr noundef %10, ptr noundef nonnull align 1 dereferenceable(1) %4) #15
  %11 = call noundef ptr @_ZNSt7__cxx1112basic_stringIcSt11char_traitsIcESaIcEE13_M_local_dataEv(ptr noundef nonnull align 8 dereferenceable(32) %0) #15
  %12 = call noundef ptr @_ZNKSt7__cxx1112basic_stringIcSt11char_traitsIcESaIcEE7_M_dataEv(ptr noundef nonnull align 8 dereferenceable(32) %0) #15
  call void @_ZNSt7__cxx1112basic_stringIcSt11char_traitsIcESaIcEE13_S_copy_charsEPcPKcS7_(ptr noundef %12, ptr noundef nonnull @.str.8, ptr noundef nonnull @.str.8) #15
  call void @_ZNSt7__cxx1112basic_stringIcSt11char_traitsIcESaIcEE13_M_set_lengthEm(ptr noundef nonnull align 8 dereferenceable(32) %0, i64 noundef 0) #15
  call void @_ZNSaIcED1Ev(ptr noundef nonnull align 1 dereferenceable(1) %4) #15
  call void @llvm.lifetime.end.p0(i64 1, ptr nonnull %4), !noalias !41
  ret void
}